; Function Attrs: mustprogress nofree norecurse nosync nounwind willreturn memory(argmem: write) uwtable
define dso_local void @_ZN11flatbuffers12SetAnyValueFEN10reflection8BaseTypeEPhd(i32 noundef %0, ptr noundef writeonly captures(none) %1, double noundef %2) local_unnamed_addr #4 {
  switch i32 %0, label %7 [
    i32 11, label %4
    i32 12, label %6
  ]

4:                                                ; preds = %3
  %5 = fptrunc double %2 to float
  store float %5, ptr %1, align 4, !tbaa !13
  br label %_ZN11flatbuffers12SetAnyValueIEN10reflection8BaseTypeEPhl.exit

6:                                                ; preds = %3
  store double %2, ptr %1, align 8, !tbaa !15
  br label %_ZN11flatbuffers12SetAnyValueIEN10reflection8BaseTypeEPhl.exit

7:                                                ; preds = %3
  %8 = fptosi double %2 to i64
  switch i32 %0, label %_ZN11flatbuffers12SetAnyValueIEN10reflection8BaseTypeEPhl.exit [
    i32 1, label %9
    i32 2, label %9
    i32 4, label %9
    i32 3, label %11
    i32 5, label %13
    i32 6, label %15
    i32 7, label %17
    i32 8, label %19
    i32 9, label %21
    i32 10, label %22
  ]

9:                                                ; preds = %7, %7, %7
  %10 = trunc i64 %8 to i8
  store i8 %10, ptr %1, align 1, !tbaa !4
  br label %_ZN11flatbuffers12SetAnyValueIEN10reflection8BaseTypeEPhl.exit

11:                                               ; preds = %7
  %12 = trunc i64 %8 to i8
  store i8 %12, ptr %1, align 1, !tbaa !4
  br label %_ZN11flatbuffers12SetAnyValueIEN10reflection8BaseTypeEPhl.exit

13:                                               ; preds = %7
  %14 = trunc i64 %8 to i16
  store i16 %14, ptr %1, align 2, !tbaa !7
  br label %_ZN11flatbuffers12SetAnyValueIEN10reflection8BaseTypeEPhl.exit

15:                                               ; preds = %7
  %16 = trunc i64 %8 to i16
  store i16 %16, ptr %1, align 2, !tbaa !7
  br label %_ZN11flatbuffers12SetAnyValueIEN10reflection8BaseTypeEPhl.exit

17:                                               ; preds = %7
  %18 = trunc i64 %8 to i32
  store i32 %18, ptr %1, align 4, !tbaa !9
  br label %_ZN11flatbuffers12SetAnyValueIEN10reflection8BaseTypeEPhl.exit

19:                                               ; preds = %7
  %20 = trunc i64 %8 to i32
  store i32 %20, ptr %1, align 4, !tbaa !9
  br label %_ZN11flatbuffers12SetAnyValueIEN10reflection8BaseTypeEPhl.exit

21:                                               ; preds = %7
  store i64 %8, ptr %1, align 8, !tbaa !11
  br label %_ZN11flatbuffers12SetAnyValueIEN10reflection8BaseTypeEPhl.exit

22:                                               ; preds = %7
  store i64 %8, ptr %1, align 8, !tbaa !11
  br label %_ZN11flatbuffers12SetAnyValueIEN10reflection8BaseTypeEPhl.exit

_ZN11flatbuffers12SetAnyValueIEN10reflection8BaseTypeEPhl.exit: ; preds = %22, %21, %19, %17, %15, %13, %11, %9, %7, %6, %4
  ret void
}